target datalayout = "e-m:e-p270:32:32-p271:32:32-p272:64:64-i64:64-i128:128-f80:128-n8:16:32:64-S128"
target triple = "x86_64-pc-linux-gnu"

@_ZN10duckdb_re211FilteredRE2D1Ev = hidden unnamed_addr alias void (ptr), ptr @_ZN10duckdb_re211FilteredRE2D2Ev
@_ZN10duckdb_re211FilteredRE2C1EOS0_ = hidden unnamed_addr alias void (ptr, ptr), ptr @_ZN10duckdb_re211FilteredRE2C2EOS0_

; Function Attrs: mustprogress uwtable
define hidden noundef nonnull align 8 dereferenceable(40) ptr @_ZN10duckdb_re211FilteredRE2aSEOS0_(ptr noundef nonnull align 8 dereferenceable(40) %0, ptr noundef nonnull align 8 dereferenceable(40) %1) #0 align 2 {
  %3 = alloca ptr, align 8
  %4 = alloca ptr, align 8
  store ptr %0, ptr %3, align 8, !tbaa !3
  store ptr %1, ptr %4, align 8, !tbaa !3
  %5 = load ptr, ptr %3, align 8
  call void @_ZN10duckdb_re211FilteredRE2D1Ev(ptr noundef nonnull align 8 dereferenceable(40) %5) #14
  %6 = load ptr, ptr %4, align 8, !tbaa !3
  call void @_ZN10duckdb_re211FilteredRE2C1EOS0_(ptr noundef nonnull align 8 dereferenceable(40) %5, ptr noundef nonnull align 8 dereferenceable(40) %6)
  ret ptr %5
}