; Function Attrs: mustprogress uwtable
define hidden noundef nonnull align 8 dereferenceable(40) ptr @_ZN10duckdb_re211FilteredRE2aSEOS0_(ptr noundef nonnull returned align 8 dereferenceable(40) %0, ptr noundef nonnull align 8 dereferenceable(40) %1) local_unnamed_addr #0 align 2 personality ptr @__gxx_personality_v0 {
  %3 = getelementptr inbounds nuw i8, ptr %0, i64 8
  %4 = load ptr, ptr %3, align 8, !tbaa !11
  %5 = load ptr, ptr %0, align 8, !tbaa !8
  %.not.i = icmp eq ptr %4, %5
  br i1 %.not.i, label %._crit_edge.i, label %.lr.ph.i

._crit_edge.i:                                    ; preds = %17, %2
  %6 = phi ptr [ %5, %2 ], [ %18, %17 ]
  %7 = getelementptr inbounds nuw i8, ptr %0, i64 32
  %8 = load ptr, ptr %7, align 8, !tbaa !3
  %.not.i.i = icmp eq ptr %8, null
  br i1 %.not.i.i, label %_ZNSt10unique_ptrIN10duckdb_re213PrefilterTreeESt14default_deleteIS1_EED2Ev.exit.i, label %_ZNKSt14default_deleteIN10duckdb_re213PrefilterTreeEEclEPS1_.exit.i.i

_ZNKSt14default_deleteIN10duckdb_re213PrefilterTreeEEclEPS1_.exit.i.i: ; preds = %._crit_edge.i
  tail call void @_ZN10duckdb_re213PrefilterTreeD1Ev(ptr noundef nonnull align 8 dereferenceable(104) %8) #16
  tail call void @_ZdlPv(ptr noundef nonnull %8) #15
  %.pre6.i = load ptr, ptr %0, align 8, !tbaa !8
  br label %_ZNSt10unique_ptrIN10duckdb_re213PrefilterTreeESt14default_deleteIS1_EED2Ev.exit.i

_ZNSt10unique_ptrIN10duckdb_re213PrefilterTreeESt14default_deleteIS1_EED2Ev.exit.i: ; preds = %_ZNKSt14default_deleteIN10duckdb_re213PrefilterTreeEEclEPS1_.exit.i.i, %._crit_edge.i
  %9 = phi ptr [ %6, %._crit_edge.i ], [ %.pre6.i, %_ZNKSt14default_deleteIN10duckdb_re213PrefilterTreeEEclEPS1_.exit.i.i ]
  store ptr null, ptr %7, align 8, !tbaa !3
  %.not.i.i.i.i = icmp eq ptr %9, null
  br i1 %.not.i.i.i.i, label %_ZN10duckdb_re211FilteredRE2D2Ev.exit, label %10

10:                                               ; preds = %_ZNSt10unique_ptrIN10duckdb_re213PrefilterTreeESt14default_deleteIS1_EED2Ev.exit.i
  tail call void @_ZdlPv(ptr noundef nonnull %9) #15
  br label %_ZN10duckdb_re211FilteredRE2D2Ev.exit

.lr.ph.i:                                         ; preds = %2, %17
  %11 = phi ptr [ %18, %17 ], [ %5, %2 ]
  %12 = phi ptr [ %19, %17 ], [ %4, %2 ]
  %.04.i = phi i64 [ %20, %17 ], [ 0, %2 ]
  %13 = getelementptr inbounds nuw ptr, ptr %11, i64 %.04.i
  %14 = load ptr, ptr %13, align 8, !tbaa !12
  %15 = icmp eq ptr %14, null
  br i1 %15, label %17, label %16

16:                                               ; preds = %.lr.ph.i
  tail call void @_ZN10duckdb_re23RE2D1Ev(ptr noundef nonnull align 8 dereferenceable(148) %14) #16
  tail call void @_ZdlPv(ptr noundef nonnull %14) #15
  %.pre.i = load ptr, ptr %3, align 8, !tbaa !11
  %.pre5.i = load ptr, ptr %0, align 8, !tbaa !8
  br label %17

17:                                               ; preds = %16, %.lr.ph.i
  %18 = phi ptr [ %11, %.lr.ph.i ], [ %.pre5.i, %16 ]
  %19 = phi ptr [ %12, %.lr.ph.i ], [ %.pre.i, %16 ]
  %20 = add nuw i64 %.04.i, 1
  %21 = ptrtoint ptr %19 to i64
  %22 = ptrtoint ptr %18 to i64
  %23 = sub i64 %21, %22
  %24 = ashr exact i64 %23, 3
  %25 = icmp ult i64 %20, %24
  br i1 %25, label %.lr.ph.i, label %._crit_edge.i, !llvm.loop !14

_ZN10duckdb_re211FilteredRE2D2Ev.exit:            ; preds = %_ZNSt10unique_ptrIN10duckdb_re213PrefilterTreeESt14default_deleteIS1_EED2Ev.exit.i, %10
  tail call void @_ZN10duckdb_re211FilteredRE2C2EOS0_(ptr noundef nonnull align 8 dereferenceable(40) %0, ptr noundef nonnull align 8 dereferenceable(40) %1)
  ret ptr %0
}